target datalayout = "e-m:e-p270:32:32-p271:32:32-p272:64:64-i64:64-i128:128-f80:128-n8:16:32:64-S128"
target triple = "x86_64-unknown-linux-gnu"

%"class.std::vector" = type { %"struct.std::_Vector_base" }
%"struct.std::_Vector_base" = type { %"struct.std::_Vector_base<int, std::allocator<int>>::_Vector_impl" }
%"struct.std::_Vector_base<int, std::allocator<int>>::_Vector_impl" = type { %"struct.std::_Vector_base<int, std::allocator<int>>::_Vector_impl_data" }
%"struct.std::_Vector_base<int, std::allocator<int>>::_Vector_impl_data" = type { ptr, ptr, ptr }
%"class.boost::intrusive_ptr" = type { ptr }
%"class.facebook::velox::DecodedVector" = type { i32, ptr, ptr, ptr, %"class.std::optional", ptr, i8, i8, i8, i8, i8, i32, %"class.std::vector", %"class.std::vector.0" }
%"class.std::optional" = type { %"struct.std::_Optional_base" }
%"struct.std::_Optional_base" = type { %"struct.std::_Optional_payload" }
%"struct.std::_Optional_payload" = type { %"struct.std::_Optional_payload_base.base", [7 x i8] }
%"struct.std::_Optional_payload_base.base" = type <{ %"union.std::_Optional_payload_base<const unsigned long *>::_Storage", i8 }>
%"union.std::_Optional_payload_base<const unsigned long *>::_Storage" = type { ptr }
%"class.std::vector.0" = type { %"struct.std::_Vector_base.1" }
%"struct.std::_Vector_base.1" = type { %"struct.std::_Vector_base<unsigned long, std::allocator<unsigned long>>::_Vector_impl" }
%"struct.std::_Vector_base<unsigned long, std::allocator<unsigned long>>::_Vector_impl" = type { %"struct.std::_Vector_base<unsigned long, std::allocator<unsigned long>>::_Vector_impl_data" }
%"struct.std::_Vector_base<unsigned long, std::allocator<unsigned long>>::_Vector_impl_data" = type { ptr, ptr, ptr }
%"class.facebook::velox::BaseVector" = type <{ ptr, %"class.std::shared_ptr", i8, [3 x i8], i32, %"class.boost::intrusive_ptr", ptr, ptr, i32, %"class.std::optional.5", %"class.std::optional.5", %"class.std::optional.5", %"class.std::optional.5", i32, i8, i8, i8, [5 x i8] }>
%"class.std::shared_ptr" = type { %"class.std::__shared_ptr" }
%"class.std::__shared_ptr" = type { ptr, %"class.std::__shared_count" }
%"class.std::__shared_count" = type { ptr }
%"class.std::optional.5" = type { %"struct.std::_Optional_base.6" }
%"struct.std::_Optional_base.6" = type { %"struct.std::_Optional_payload.8" }
%"struct.std::_Optional_payload.8" = type { %"struct.std::_Optional_payload_base.base.10", [3 x i8] }
%"struct.std::_Optional_payload_base.base.10" = type <{ %"union.std::_Optional_payload_base<int>::_Storage", i8 }>
%"union.std::_Optional_payload_base<int>::_Storage" = type { i32 }
%"class.facebook::velox::Buffer" = type { ptr, ptr, ptr, i64, i64, %"struct.std::atomic", i8, [2 x i64] }
%"struct.std::atomic" = type { %"struct.std::__atomic_base" }
%"struct.std::__atomic_base" = type { i32 }

; Function Attrs: mustprogress nounwind uwtable
define linkonce_odr noundef ptr @_ZNK8facebook5velox6Buffer2asIvEEPKT_v(ptr noundef nonnull align 8 dereferenceable(64) %this) #2 comdat align 2 {
entry:
  %this.addr = alloca ptr, align 8
  store ptr %this, ptr %this.addr, align 8
  %this1 = load ptr, ptr %this.addr, align 8
  %data_ = getelementptr inbounds %"class.facebook::velox::Buffer", ptr %this1, i32 0, i32 2
  %0 = load ptr, ptr %data_, align 8
  ret ptr %0
}

; Function Attrs: mustprogress nounwind uwtable
define linkonce_odr noundef ptr @_ZNK5boost13intrusive_ptrIN8facebook5velox6BufferEEptEv(ptr noundef nonnull align 8 dereferenceable(8) %this) #2 comdat align 2 {
entry:
  %this.addr = alloca ptr, align 8
  store ptr %this, ptr %this.addr, align 8
  %this1 = load ptr, ptr %this.addr, align 8
  %px = getelementptr inbounds %"class.boost::intrusive_ptr", ptr %this1, i32 0, i32 0
  %0 = load ptr, ptr %px, align 8
  ret ptr %0
}

; Function Attrs: mustprogress nounwind uwtable
define linkonce_odr noundef zeroext i1 @_ZNK5boost13intrusive_ptrIN8facebook5velox6BufferEEcvbEv(ptr noundef nonnull align 8 dereferenceable(8) %this) #2 comdat align 2 {
entry:
  %this.addr = alloca ptr, align 8
  store ptr %this, ptr %this.addr, align 8
  %this1 = load ptr, ptr %this.addr, align 8
  %px = getelementptr inbounds %"class.boost::intrusive_ptr", ptr %this1, i32 0, i32 0
  %0 = load ptr, ptr %px, align 8
  %cmp = icmp ne ptr %0, null
  ret i1 %cmp
}

; Function Attrs: mustprogress nounwind uwtable
define linkonce_odr noundef i32 @_ZNK8facebook5velox10BaseVector8encodingEv(ptr noundef nonnull align 8 dereferenceable(99) %this) #2 comdat align 2 {
entry:
  %this.addr = alloca ptr, align 8
  store ptr %this, ptr %this.addr, align 8
  %this1 = load ptr, ptr %this.addr, align 8
  %encoding_ = getelementptr inbounds %"class.facebook::velox::BaseVector", ptr %this1, i32 0, i32 4
  %0 = load i32, ptr %encoding_, align 4
  ret i32 %0
}

; Function Attrs: mustprogress uwtable
define void @_ZN8facebook5velox13DecodedVector11setBaseDataERKNS0_10BaseVectorEPKNS0_17SelectivityVectorE(ptr noundef nonnull align 8 dereferenceable(120) %this, ptr noundef nonnull align 8 dereferenceable(99) %vector, ptr noundef %rows) #0 align 2 {
entry:
  %this.addr = alloca ptr, align 8
  %vector.addr = alloca ptr, align 8
  %rows.addr = alloca ptr, align 8
  %encoding = alloca i32, align 4
  store ptr %this, ptr %this.addr, align 8
  store ptr %vector, ptr %vector.addr, align 8
  store ptr %rows, ptr %rows.addr, align 8
  %this1 = load ptr, ptr %this.addr, align 8
  %0 = load ptr, ptr %vector.addr, align 8
  %call = call noundef i32 @_ZNK8facebook5velox10BaseVector8encodingEv(ptr noundef nonnull align 8 dereferenceable(99) %0)
  store i32 %call, ptr %encoding, align 4
  %1 = load ptr, ptr %vector.addr, align 8
  %baseVector_ = getelementptr inbounds %"class.facebook::velox::DecodedVector", ptr %this1, i32 0, i32 5
  store ptr %1, ptr %baseVector_, align 8
  %2 = load i32, ptr %encoding, align 4
  switch i32 %2, label %sw.default [
    i32 8, label %sw.bb
    i32 3, label %sw.bb2
    i32 5, label %sw.bb10
    i32 7, label %sw.bb10
    i32 6, label %sw.bb10
    i32 1, label %sw.bb11
  ]

sw.bb:                                            ; preds = %entry
  br label %sw.epilog

sw.bb2:                                           ; preds = %entry
  %3 = load ptr, ptr %vector.addr, align 8
  %vtable = load ptr, ptr %3, align 8
  %vfn = getelementptr inbounds ptr, ptr %vtable, i64 34
  %4 = load ptr, ptr %vfn, align 8
  %call3 = call noundef nonnull align 8 dereferenceable(8) ptr %4(ptr noundef nonnull align 8 dereferenceable(99) %3)
  %call4 = call noundef zeroext i1 @_ZNK5boost13intrusive_ptrIN8facebook5velox6BufferEEcvbEv(ptr noundef nonnull align 8 dereferenceable(8) %call3) #1
  br i1 %call4, label %cond.true, label %cond.false

cond.true:                                        ; preds = %sw.bb2
  %5 = load ptr, ptr %vector.addr, align 8
  %vtable5 = load ptr, ptr %5, align 8
  %vfn6 = getelementptr inbounds ptr, ptr %vtable5, i64 34
  %6 = load ptr, ptr %vfn6, align 8
  %call7 = call noundef nonnull align 8 dereferenceable(8) ptr %6(ptr noundef nonnull align 8 dereferenceable(99) %5)
  %call8 = call noundef ptr @_ZNK5boost13intrusive_ptrIN8facebook5velox6BufferEEptEv(ptr noundef nonnull align 8 dereferenceable(8) %call7) #1
  %call9 = call noundef ptr @_ZNK8facebook5velox6Buffer2asIvEEPKT_v(ptr noundef nonnull align 8 dereferenceable(64) %call8)
  br label %cond.end

cond.false:                                       ; preds = %sw.bb2
  br label %cond.end

cond.end:                                         ; preds = %cond.false, %cond.true
  %cond = phi ptr [ %call9, %cond.true ], [ null, %cond.false ]
  %data_ = getelementptr inbounds %"class.facebook::velox::DecodedVector", ptr %this1, i32 0, i32 2
  store ptr %cond, ptr %data_, align 8
  %7 = load ptr, ptr %vector.addr, align 8
  %8 = load ptr, ptr %rows.addr, align 8
  call void @_ZN8facebook5velox13DecodedVector12setFlatNullsERKNS0_10BaseVectorEPKNS0_17SelectivityVectorE(ptr noundef nonnull align 8 dereferenceable(120) %this1, ptr noundef nonnull align 8 dereferenceable(99) %7, ptr noundef %8)
  br label %sw.epilog

sw.bb10:                                          ; preds = %entry, %entry, %entry
  %9 = load ptr, ptr %vector.addr, align 8
  %10 = load ptr, ptr %rows.addr, align 8
  call void @_ZN8facebook5velox13DecodedVector12setFlatNullsERKNS0_10BaseVectorEPKNS0_17SelectivityVectorE(ptr noundef nonnull align 8 dereferenceable(120) %this1, ptr noundef nonnull align 8 dereferenceable(99) %9, ptr noundef %10)
  br label %sw.epilog

sw.bb11:                                          ; preds = %entry
  %11 = load ptr, ptr %vector.addr, align 8
  %12 = load ptr, ptr %rows.addr, align 8
  call void @_ZN8facebook5velox13DecodedVector22setBaseDataForConstantERKNS0_10BaseVectorEPKNS0_17SelectivityVectorE(ptr noundef nonnull align 8 dereferenceable(120) %this1, ptr noundef nonnull align 8 dereferenceable(99) %11, ptr noundef %12)
  br label %sw.epilog

sw.default:                                       ; preds = %entry
  call void @llvm.trap()
  br label %sw.epilog

sw.epilog:                                        ; preds = %sw.default, %sw.bb11, %sw.bb10, %cond.end, %sw.bb
  ret void
}