; Function Attrs: mustprogress uwtable
define void @_ZN8facebook5velox13DecodedVector11setBaseDataERKNS0_10BaseVectorEPKNS0_17SelectivityVectorE(ptr noundef nonnull align 8 dereferenceable(120) %this, ptr noundef nonnull align 8 dereferenceable(99) %vector, ptr noundef %rows) local_unnamed_addr #0 align 2 {
entry:
  %encoding_.i = getelementptr inbounds i8, ptr %vector, i64 28
  %0 = load i32, ptr %encoding_.i, align 4
  %baseVector_ = getelementptr inbounds i8, ptr %this, i64 48
  store ptr %vector, ptr %baseVector_, align 8
  switch i32 %0, label %sw.default [
    i32 8, label %sw.epilog
    i32 3, label %sw.bb2
    i32 5, label %sw.bb10
    i32 7, label %sw.bb10
    i32 6, label %sw.bb10
    i32 1, label %sw.bb11
  ]

sw.bb2:                                           ; preds = %entry
  %vtable = load ptr, ptr %vector, align 8
  %vfn = getelementptr inbounds i8, ptr %vtable, i64 272
  %1 = load ptr, ptr %vfn, align 8
  %call3 = tail call noundef nonnull align 8 dereferenceable(8) ptr %1(ptr noundef nonnull align 8 dereferenceable(99) %vector)
  %2 = load ptr, ptr %call3, align 8
  %cmp.i.not = icmp eq ptr %2, null
  br i1 %cmp.i.not, label %cond.end, label %cond.true

cond.true:                                        ; preds = %sw.bb2
  %vtable5 = load ptr, ptr %vector, align 8
  %vfn6 = getelementptr inbounds i8, ptr %vtable5, i64 272
  %3 = load ptr, ptr %vfn6, align 8
  %call7 = tail call noundef nonnull align 8 dereferenceable(8) ptr %3(ptr noundef nonnull align 8 dereferenceable(99) %vector)
  %4 = load ptr, ptr %call7, align 8
  %data_.i = getelementptr inbounds i8, ptr %4, i64 16
  %5 = load ptr, ptr %data_.i, align 8
  br label %cond.end

cond.end:                                         ; preds = %sw.bb2, %cond.true
  %cond = phi ptr [ %5, %cond.true ], [ null, %sw.bb2 ]
  %data_ = getelementptr inbounds i8, ptr %this, i64 16
  store ptr %cond, ptr %data_, align 8
  tail call void @_ZN8facebook5velox13DecodedVector12setFlatNullsERKNS0_10BaseVectorEPKNS0_17SelectivityVectorE(ptr noundef nonnull align 8 dereferenceable(120) %this, ptr noundef nonnull align 8 dereferenceable(99) %vector, ptr noundef %rows)
  br label %sw.epilog

sw.bb10:                                          ; preds = %entry, %entry, %entry
  tail call void @_ZN8facebook5velox13DecodedVector12setFlatNullsERKNS0_10BaseVectorEPKNS0_17SelectivityVectorE(ptr noundef nonnull align 8 dereferenceable(120) %this, ptr noundef nonnull align 8 dereferenceable(99) %vector, ptr noundef %rows)
  br label %sw.epilog

sw.bb11:                                          ; preds = %entry
  tail call void @_ZN8facebook5velox13DecodedVector22setBaseDataForConstantERKNS0_10BaseVectorEPKNS0_17SelectivityVectorE(ptr noundef nonnull align 8 dereferenceable(120) %this, ptr noundef nonnull align 8 dereferenceable(99) %vector, ptr noundef %rows)
  br label %sw.epilog

sw.default:                                       ; preds = %entry
  tail call void @llvm.trap()
  unreachable

sw.epilog:                                        ; preds = %entry, %sw.bb11, %sw.bb10, %cond.end
  ret void
}